target datalayout = "e-m:e-p270:32:32-p271:32:32-p272:64:64-i64:64-i128:128-f80:128-n8:16:32:64-S128"
target triple = "x86_64-pc-linux-gnu"

%struct.tng_chain = type { ptr, i64, ptr, i64, ptr }
%struct.tng_residue = type { ptr, i64, ptr, i64, i64 }

; Function Attrs: nounwind uwtable
define i32 @tng_chain_residue_of_index_get(ptr noundef %0, ptr noundef %1, i64 noundef %2, ptr noundef %3) #0 {
  %5 = alloca i32, align 4
  %6 = alloca ptr, align 8
  %7 = alloca ptr, align 8
  %8 = alloca i64, align 8
  %9 = alloca ptr, align 8
  store ptr %0, ptr %6, align 8, !tbaa !3
  store ptr %1, ptr %7, align 8, !tbaa !59
  store i64 %2, ptr %8, align 8, !tbaa !26
  store ptr %3, ptr %9, align 8, !tbaa !10
  %10 = load i64, ptr %8, align 8, !tbaa !26
  %11 = load ptr, ptr %7, align 8, !tbaa !59
  %12 = getelementptr inbounds nuw %struct.tng_chain, ptr %11, i32 0, i32 3
  %13 = load i64, ptr %12, align 8, !tbaa !73
  %14 = icmp sge i64 %10, %13
  br i1 %14, label %15, label %17

15:                                               ; preds = %4
  %16 = load ptr, ptr %9, align 8, !tbaa !10
  store ptr null, ptr %16, align 8, !tbaa !18
  store i32 1, ptr %5, align 4
  br label %24

17:                                               ; preds = %4
  %18 = load ptr, ptr %7, align 8, !tbaa !59
  %19 = getelementptr inbounds nuw %struct.tng_chain, ptr %18, i32 0, i32 4
  %20 = load ptr, ptr %19, align 8, !tbaa !74
  %21 = load i64, ptr %8, align 8, !tbaa !26
  %22 = getelementptr inbounds %struct.tng_residue, ptr %20, i64 %21
  %23 = load ptr, ptr %9, align 8, !tbaa !10
  store ptr %22, ptr %23, align 8, !tbaa !18
  store i32 0, ptr %5, align 4
  br label %24

24:                                               ; preds = %17, %15
  %25 = load i32, ptr %5, align 4
  ret i32 %25
}